(lp0
I10
aI10
a(lp1
(lp2
(ipmfm
Medium
p3
(dp4
S'mv_src'
p5
I0
sS'dist'
p6
I4
sS'absorbed_data_ids'
p7
(lp8
sS'mv_dest'
p9
I0
sS'moving_data'
p10
I00
sS'cache'
p11
(lp12
I0
aI0
aI3
aI3
aI0
asS'accepted_dist'
p13
(lp14
sS'last_neigh'
p15
I2
sba(ipmfm
Medium
p16
(dp17
g5
I0
sg6
I3
sg7
(lp18
sg9
I0
sg10
I00
sg11
(lp19
I0
aI4
aI2
aI2
aI0
asg13
(lp20
sg15
I2
sba(ipmfm
Medium
p21
(dp22
g5
I0
sg6
I2
sg7
(lp23
sg9
I0
sg10
I00
sg11
(lp24
I0
aI3
aI1
aI2
aI0
asg13
(lp25
sg15
I2
sba(ipmfm
Medium
p26
(dp27
g5
I0
sg6
I2
sg7
(lp28
sg9
I0
sg10
I00
sg11
(lp29
I0
aI2
aI1
aI2
aI0
asg13
(lp30
sg15
I2
sba(ipmfm
Medium
p31
(dp32
g5
I0
sg6
I2
sg7
(lp33
sg9
I0
sg10
I00
sg11
(lp34
I0
aI2
aI1
aI2
aI0
asg13
(lp35
sg15
I2
sba(ipmfm
Medium
p36
(dp37
g5
I0
sg6
I2
sg7
(lp38
sg9
I0
sg10
I00
sg11
(lp39
I0
aI2
aI1
aI2
aI0
asg13
(lp40
sg15
I2
sba(ipmfm
Medium
p41
(dp42
g5
I0
sg6
I2
sg7
(lp43
sg9
I0
sg10
I00
sg11
(lp44
I0
aI2
aI1
aI2
aI0
asg13
(lp45
sg15
I2
sba(ipmfm
Medium
p46
(dp47
g5
I0
sg6
I2
sg7
(lp48
sg9
I0
sg10
I00
sg11
(lp49
I0
aI2
aI1
aI3
aI0
asg13
(lp50
sg15
I2
sba(ipmfm
Medium
p51
(dp52
g5
I0
sg6
I3
sg7
(lp53
sg9
I0
sg10
I00
sg11
(lp54
I0
aI2
aI2
aI4
aI0
asg13
(lp55
sg15
I2
sba(ipmfm
Medium
p56
(dp57
g5
I0
sg6
I4
sg7
(lp58
sg9
I0
sg10
I00
sg11
(lp59
I0
aI3
aI3
aI0
aI0
asg13
(lp60
sg15
I2
sbaa(lp61
(ipmfm
Medium
p62
(dp63
g5
I0
sg6
I3
sg7
(lp64
sg9
I0
sg10
I00
sg11
(lp65
I0
aI0
aI2
aI2
aI4
asg13
(lp66
sg15
I2
sba(ipmfm
Medium
p67
(dp68
g5
I0
sg6
I2
sg7
(lp69
sg9
I0
sg10
I00
sg11
(lp70
I0
aI3
aI1
aI1
aI3
asg13
(lp71
sg15
I2
sba(ipmfm
Medium
p72
(dp73
g5
I0
sg6
I1
sg7
(lp74
sg9
I0
sg10
I00
sg11
(lp75
I0
aI2
aI-1
aI1
aI2
asg13
(lp76
sg15
I2
sba(ipmfm
Medium
p77
(dp78
g5
I0
sg6
I1
sg7
(lp79
sg9
I0
sg10
I00
sg11
(lp80
I0
aI1
aI-1
aI1
aI2
asg13
(lp81
sg15
I2
sba(ipmfm
Medium
p82
(dp83
g5
I0
sg6
I1
sg7
(lp84
sg9
I0
sg10
I00
sg11
(lp85
I0
aI1
aI-1
aI1
aI2
asg13
(lp86
sg15
I2
sba(ipmfm
Medium
p87
(dp88
g5
I0
sg6
I1
sg7
(lp89
sg9
I0
sg10
I00
sg11
(lp90
I0
aI1
aI-1
aI1
aI2
asg13
(lp91
sg15
I2
sba(ipmfm
Medium
p92
(dp93
g5
I0
sg6
I1
sg7
(lp94
sg9
I0
sg10
I00
sg11
(lp95
I0
aI1
aI-1
aI1
aI2
asg13
(lp96
sg15
I2
sba(ipmfm
Medium
p97
(dp98
g5
I0
sg6
I1
sg7
(lp99
sg9
I0
sg10
I00
sg11
(lp100
I0
aI1
aI-1
aI2
aI2
asg13
(lp101
sg15
I2
sba(ipmfm
Medium
p102
(dp103
g5
I0
sg6
I2
sg7
(lp104
sg9
I0
sg10
I00
sg11
(lp105
I0
aI1
aI1
aI3
aI3
asg13
(lp106
sg15
I2
sba(ipmfm
Medium
p107
(dp108
g5
I0
sg6
I3
sg7
(lp109
sg9
I0
sg10
I00
sg11
(lp110
I0
aI2
aI2
aI0
aI4
asg13
(lp111
sg15
I2
sbaa(lp112
(ipmfm
Medium
p113
(dp114
g5
I0
sg6
I2
sg7
(lp115
sg9
I0
sg10
I00
sg11
(lp116
I0
aI0
aI2
aI1
aI3
asg13
(lp117
sg15
I3
sba(ipmfm
Medium
p118
(dp119
g5
I0
sg6
I1
sg7
(lp120
sg9
I0
sg10
I00
sg11
(lp121
I0
aI2
aI1
aI-1
aI2
asg13
(lp122
sg15
I3
sba(ipmfm
Barrier
p123
(dp124
S'accepted_data_ids'
p125
(lp126
sg15
I1
sg11
(lp127
I0
aS'Medium'
p128
aS'Barrier'
p129
ag129
ag128
asba(ipmfm
Barrier
p130
(dp131
g125
(lp132
sg15
I3
sg11
(lp133
I0
ag129
ag128
ag129
ag128
asba(ipmfm
Barrier
p134
(dp135
g125
(lp136
sg15
I3
sg11
(lp137
I0
ag129
ag128
ag129
ag128
asba(ipmfm
Barrier
p138
(dp139
g125
(lp140
sg15
I3
sg11
(lp141
I0
ag129
ag128
ag129
ag128
asba(ipmfm
Barrier
p142
(dp143
g125
(lp144
sg15
I3
sg11
(lp145
I0
ag129
ag128
ag129
ag128
asba(ipmfm
Barrier
p146
(dp147
g125
(lp148
sg15
I2
sg11
(lp149
I0
ag129
ag129
ag128
ag128
asba(ipmfm
Medium
p150
(dp151
g5
I0
sg6
I1
sg7
(lp152
sg9
I0
sg10
I00
sg11
(lp153
I0
aI-1
aI1
aI2
aI2
asg13
(lp154
sg15
I2
sba(ipmfm
Medium
p155
(dp156
g5
I0
sg6
I2
sg7
(lp157
sg9
I0
sg10
I00
sg11
(lp158
I0
aI1
aI2
aI0
aI3
asg13
(lp159
sg15
I2
sbaa(lp160
(ipmfm
Medium
p161
(dp162
g5
I0
sg6
I2
sg7
(lp163
sg9
I0
sg10
I00
sg11
(lp164
I0
aI0
aI2
aI1
aI2
asg13
(lp165
sg15
I4
sba(ipmfm
Medium
p166
(dp167
g5
I0
sg6
I1
sg7
(lp168
sg9
I0
sg10
I00
sg11
(lp169
I0
aI2
aI1
aI-1
aI1
asg13
(lp170
sg15
I4
sba(ipmfm
Barrier
p171
(dp172
g125
(lp173
sg15
I2
sg11
(lp174
I0
ag128
ag129
ag128
ag129
asba(ipmfm
Medium
p175
(dp176
g5
I0
sg6
I1
sg7
(lp177
sg9
I0
sg10
I00
sg11
(lp178
I0
aI-1
aI1
aI1
aI-1
asg13
(lp179
sg15
I2
sba(ipmfm
Medium
p180
(dp181
g5
I0
sg6
I1
sg7
(lp182
sg9
I0
sg10
I00
sg11
(lp183
I0
aI1
aI2
aI1
aI-1
asg13
(lp184
sg15
I2
sba(ipmfm
Medium
p185
(dp186
g5
I0
sg6
I1
sg7
(lp187
sg9
I0
sg10
I00
sg11
(lp188
I0
aI1
aI2
aI1
aI-1
asg13
(lp189
sg15
I2
sba(ipmfm
Medium
p190
(dp191
g5
I0
sg6
I1
sg7
(lp192
sg9
I0
sg10
I00
sg11
(lp193
I0
aI1
aI1
aI-1
aI-1
asg13
(lp194
sg15
I2
sba(ipmfm
Barrier
p195
(dp196
g125
(lp197
sg15
I1
sg11
(lp198
I0
ag128
ag129
ag128
ag129
asba(ipmfm
Medium
p199
(dp200
g5
I0
sg6
I1
sg7
(lp201
sg9
I0
sg10
I00
sg11
(lp202
I0
aI-1
aI1
aI2
aI1
asg13
(lp203
sg15
I2
sba(ipmfm
Medium
p204
(dp205
g5
I0
sg6
I2
sg7
(lp206
sg9
I0
sg10
I00
sg11
(lp207
I0
aI1
aI2
aI0
aI2
asg13
(lp208
sg15
I2
sbaa(lp209
(ipmfm
Medium
p210
(dp211
g5
I0
sg6
I2
sg7
(lp212
sg9
I0
sg10
I00
sg11
(lp213
I0
aI0
aI2
aI1
aI2
asg13
(lp214
sg15
I1
sba(ipmfm
Medium
p215
(dp216
g5
I0
sg6
I1
sg7
(lp217
sg9
I0
sg10
I00
sg11
(lp218
I0
aI2
aI1
aI-1
aI1
asg13
(lp219
sg15
I1
sba(ipmfm
Barrier
p220
(dp221
g125
(lp222
sg15
I1
sg11
(lp223
I0
ag128
ag129
ag128
ag129
asba(ipmfm
Medium
p224
(dp225
g5
I0
sg6
I1
sg7
(lp226
sg9
I0
sg10
I00
sg11
(lp227
I0
aI-1
aI1
aI2
aI1
asg13
(lp228
sg15
I2
sba(ipmfm
Medium
p229
(dp230
g5
I0
sg6
I2
sg7
(lp231
sg9
I0
sg10
I00
sg11
(lp232
I0
aI1
aI2
aI2
aI1
asg13
(lp233
sg15
I2
sba(ipmfm
Medium
p234
(dp235
g5
I0
sg6
I2
sg7
(lp236
sg9
I0
sg10
I00
sg11
(lp237
I0
aI2
aI2
aI1
aI1
asg13
(lp238
sg15
I2
sba(ipmfm
Medium
p239
(dp240
g5
I0
sg6
I1
sg7
(lp241
sg9
I0
sg10
I00
sg11
(lp242
I0
aI2
aI1
aI-1
aI1
asg13
(lp243
sg15
I2
sba(ipmfm
Barrier
p244
(dp245
g125
(lp246
sg15
I1
sg11
(lp247
I0
ag128
ag129
ag128
ag129
asba(ipmfm
Medium
p248
(dp249
g5
I0
sg6
I1
sg7
(lp250
sg9
I0
sg10
I00
sg11
(lp251
I0
aI-1
aI1
aI2
aI1
asg13
(lp252
sg15
I2
sba(ipmfm
Medium
p253
(dp254
g5
I0
sg6
I2
sg7
(lp255
sg9
I0
sg10
I00
sg11
(lp256
I0
aI1
aI2
aI0
aI2
asg13
(lp257
sg15
I2
sbaa(lp258
(ipmfm
Medium
p259
(dp260
g5
I0
sg6
I2
sg7
(lp261
sg9
I0
sg10
I00
sg11
(lp262
I0
aI0
aI2
aI1
aI2
asg13
(lp263
sg15
I1
sba(ipmfm
Medium
p264
(dp265
g5
I0
sg6
I1
sg7
(lp266
sg9
I0
sg10
I00
sg11
(lp267
I0
aI2
aI1
aI-1
aI1
asg13
(lp268
sg15
I1
sba(ipmfm
Barrier
p269
(dp270
g125
(lp271
sg15
I3
sg11
(lp272
I0
ag128
ag129
ag128
ag129
asba(ipmfm
Medium
p273
(dp274
g5
I0
sg6
I1
sg7
(lp275
sg9
I0
sg10
I00
sg11
(lp276
I0
aI-1
aI1
aI2
aI1
asg13
(lp277
sg15
I2
sba(ipmfm
Medium
p278
(dp279
g5
I0
sg6
I2
sg7
(lp280
sg9
I0
sg10
I00
sg11
(lp281
I0
aI1
aI1
aI2
aI2
asg13
(lp282
sg15
I2
sba(ipmfm
Medium
p283
(dp284
g5
I0
sg6
I2
sg7
(lp285
sg9
I0
sg10
I00
sg11
(lp286
I0
aI2
aI1
aI1
aI2
asg13
(lp287
sg15
I2
sba(ipmfm
Medium
p288
(dp289
g5
I0
sg6
I1
sg7
(lp290
sg9
I0
sg10
I00
sg11
(lp291
I0
aI2
aI1
aI-1
aI1
asg13
(lp292
sg15
I2
sba(ipmfm
Barrier
p293
(dp294
g125
(lp295
sg15
I1
sg11
(lp296
I0
ag128
ag129
ag128
ag129
asba(ipmfm
Medium
p297
(dp298
g5
I0
sg6
I1
sg7
(lp299
sg9
I0
sg10
I00
sg11
(lp300
I0
aI-1
aI1
aI2
aI1
asg13
(lp301
sg15
I2
sba(ipmfm
Medium
p302
(dp303
g5
I0
sg6
I2
sg7
(lp304
sg9
I0
sg10
I00
sg11
(lp305
I0
aI1
aI2
aI0
aI2
asg13
(lp306
sg15
I2
sbaa(lp307
(ipmfm
Medium
p308
(dp309
g5
I0
sg6
I2
sg7
(lp310
sg9
I0
sg10
I00
sg11
(lp311
I0
aI0
aI2
aI1
aI2
asg13
(lp312
sg15
I1
sba(ipmfm
Medium
p313
(dp314
g5
I0
sg6
I1
sg7
(lp315
sg9
I0
sg10
I00
sg11
(lp316
I0
aI2
aI1
aI-1
aI1
asg13
(lp317
sg15
I1
sba(ipmfm
Barrier
p318
(dp319
g125
(lp320
sg15
I3
sg11
(lp321
I0
ag128
ag129
ag128
ag129
asba(ipmfm
Medium
p322
(dp323
g5
I0
sg6
I1
sg7
(lp324
sg9
I0
sg10
I00
sg11
(lp325
I0
aI-1
aI-1
aI1
aI1
asg13
(lp326
sg15
I3
sba(ipmfm
Medium
p327
(dp328
g5
I0
sg6
I1
sg7
(lp329
sg9
I0
sg10
I00
sg11
(lp330
I0
aI1
aI-1
aI1
aI2
asg13
(lp331
sg15
I3
sba(ipmfm
Medium
p332
(dp333
g5
I0
sg6
I1
sg7
(lp334
sg9
I0
sg10
I00
sg11
(lp335
I0
aI1
aI-1
aI1
aI2
asg13
(lp336
sg15
I3
sba(ipmfm
Medium
p337
(dp338
g5
I0
sg6
I1
sg7
(lp339
sg9
I0
sg10
I00
sg11
(lp340
I0
aI1
aI-1
aI-1
aI1
asg13
(lp341
sg15
I3
sba(ipmfm
Barrier
p342
(dp343
g125
(lp344
sg15
I3
sg11
(lp345
I0
ag128
ag129
ag128
ag129
asba(ipmfm
Medium
p346
(dp347
g5
I0
sg6
I1
sg7
(lp348
sg9
I0
sg10
I00
sg11
(lp349
I0
aI-1
aI1
aI2
aI1
asg13
(lp350
sg15
I3
sba(ipmfm
Medium
p351
(dp352
g5
I0
sg6
I2
sg7
(lp353
sg9
I0
sg10
I00
sg11
(lp354
I0
aI1
aI2
aI0
aI2
asg13
(lp355
sg15
I3
sbaa(lp356
(ipmfm
Medium
p357
(dp358
g5
I0
sg6
I2
sg7
(lp359
sg9
I0
sg10
I00
sg11
(lp360
I0
aI0
aI3
aI1
aI2
asg13
(lp361
sg15
I1
sba(ipmfm
Medium
p362
(dp363
g5
I0
sg6
I1
sg7
(lp364
sg9
I0
sg10
I00
sg11
(lp365
I0
aI2
aI2
aI-1
aI1
asg13
(lp366
sg15
I1
sba(ipmfm
Barrier
p367
(dp368
g125
(lp369
sg15
I2
sg11
(lp370
I0
ag128
ag128
ag129
ag129
asba(ipmfm
Barrier
p371
(dp372
g125
(lp373
sg15
I1
sg11
(lp374
I0
ag129
ag128
ag129
ag128
asba(ipmfm
Barrier
p375
(dp376
g125
(lp377
sg15
I2
sg11
(lp378
I0
ag129
ag128
ag129
ag128
asba(ipmfm
Barrier
p379
(dp380
g125
(lp381
sg15
I4
sg11
(lp382
I0
ag129
ag128
ag129
ag128
asba(ipmfm
Barrier
p383
(dp384
g125
(lp385
sg15
I4
sg11
(lp386
I0
ag129
ag128
ag129
ag128
asba(ipmfm
Barrier
p387
(dp388
g125
(lp389
sg15
I1
sg11
(lp390
I0
ag129
ag128
ag128
ag129
asba(ipmfm
Medium
p391
(dp392
g5
I0
sg6
I1
sg7
(lp393
sg9
I0
sg10
I00
sg11
(lp394
I0
aI-1
aI2
aI2
aI1
asg13
(lp395
sg15
I4
sba(ipmfm
Medium
p396
(dp397
g5
I0
sg6
I2
sg7
(lp398
sg9
I0
sg10
I00
sg11
(lp399
I0
aI1
aI3
aI0
aI2
asg13
(lp400
sg15
I4
sbaa(lp401
(ipmfm
Medium
p402
(dp403
g5
I0
sg6
I3
sg7
(lp404
sg9
I0
sg10
I00
sg11
(lp405
I0
aI0
aI4
aI2
aI2
asg13
(lp406
sg15
I1
sba(ipmfm
Medium
p407
(dp408
g5
I0
sg6
I2
sg7
(lp409
sg9
I0
sg10
I00
sg11
(lp410
I0
aI3
aI3
aI1
aI1
asg13
(lp411
sg15
I1
sba(ipmfm
Medium
p412
(dp413
g5
I0
sg6
I1
sg7
(lp414
sg9
I0
sg10
I00
sg11
(lp415
I0
aI2
aI2
aI1
aI-1
asg13
(lp416
sg15
I1
sba(ipmfm
Medium
p417
(dp418
g5
I0
sg6
I1
sg7
(lp419
sg9
I0
sg10
I00
sg11
(lp420
I0
aI1
aI2
aI1
aI-1
asg13
(lp421
sg15
I1
sba(ipmfm
Medium
p422
(dp423
g5
I0
sg6
I1
sg7
(lp424
sg9
I0
sg10
I00
sg11
(lp425
I0
aI1
aI2
aI1
aI-1
asg13
(lp426
sg15
I1
sba(ipmfm
Medium
p427
(dp428
g5
I0
sg6
I1
sg7
(lp429
sg9
I0
sg10
I00
sg11
(lp430
I0
aI1
aI2
aI1
aI-1
asg13
(lp431
sg15
I1
sba(ipmfm
Medium
p432
(dp433
g5
I0
sg6
I1
sg7
(lp434
sg9
I0
sg10
I00
sg11
(lp435
I0
aI1
aI2
aI1
aI-1
asg13
(lp436
sg15
I1
sba(ipmfm
Medium
p437
(dp438
g5
I0
sg6
I1
sg7
(lp439
sg9
I0
sg10
I00
sg11
(lp440
I0
aI1
aI2
aI2
aI-1
asg13
(lp441
sg15
I1
sba(ipmfm
Medium
p442
(dp443
g5
I0
sg6
I2
sg7
(lp444
sg9
I0
sg10
I00
sg11
(lp445
I0
aI1
aI3
aI3
aI1
asg13
(lp446
sg15
I1
sba(ipmfm
Medium
p447
(dp448
g5
I0
sg6
I3
sg7
(lp449
sg9
I0
sg10
I00
sg11
(lp450
I0
aI2
aI4
aI0
aI2
asg13
(lp451
sg15
I1
sbaa(lp452
(ipmfm
Medium
p453
(dp454
g5
I0
sg6
I4
sg7
(lp455
sg9
I0
sg10
I00
sg11
(lp456
I0
aI0
aI0
aI3
aI3
asg13
(lp457
sg15
I2
sba(ipmfm
Medium
p458
(dp459
g5
I0
sg6
I3
sg7
(lp460
sg9
I0
sg10
I00
sg11
(lp461
I0
aI4
aI0
aI2
aI2
asg13
(lp462
sg15
I2
sba(ipmfm
Medium
p463
(dp464
g5
I0
sg6
I2
sg7
(lp465
sg9
I0
sg10
I00
sg11
(lp466
I0
aI3
aI0
aI2
aI1
asg13
(lp467
sg15
I2
sba(ipmfm
Medium
p468
(dp469
g5
I0
sg6
I2
sg7
(lp470
sg9
I0
sg10
I00
sg11
(lp471
I0
aI2
aI0
aI2
aI1
asg13
(lp472
sg15
I2
sba(ipmfm
Medium
p473
(dp474
g5
I0
sg6
I2
sg7
(lp475
sg9
I0
sg10
I00
sg11
(lp476
I0
aI2
aI0
aI2
aI1
asg13
(lp477
sg15
I2
sba(ipmfm
Medium
p478
(dp479
g5
I0
sg6
I2
sg7
(lp480
sg9
I0
sg10
I00
sg11
(lp481
I0
aI2
aI0
aI2
aI1
asg13
(lp482
sg15
I2
sba(ipmfm
Medium
p483
(dp484
g5
I0
sg6
I2
sg7
(lp485
sg9
I0
sg10
I00
sg11
(lp486
I0
aI2
aI0
aI2
aI1
asg13
(lp487
sg15
I2
sba(ipmfm
Medium
p488
(dp489
g5
I0
sg6
I2
sg7
(lp490
sg9
I0
sg10
I00
sg11
(lp491
I0
aI2
aI0
aI3
aI1
asg13
(lp492
sg15
I2
sba(ipmfm
Medium
p493
(dp494
g5
I0
sg6
I3
sg7
(lp495
sg9
I0
sg10
I00
sg11
(lp496
I0
aI2
aI0
aI4
aI2
asg13
(lp497
sg15
I2
sba(ipmfm
Medium
p498
(dp499
g5
I0
sg6
I4
sg7
(lp500
sg9
I0
sg10
I00
sg11
(lp501
I0
aI3
aI0
aI0
aI3
asg13
(lp502
sg15
I2
sbaaa.