(lp0
I10
aI10
a(lp1
(lp2
(ipmfm
Medium
p3
(dp4
S'mv_src'
p5
I1
sS'dist'
p6
I4
sS'absorbed_data_ids'
p7
(lp8
sS'mv_dest'
p9
I0
sS'moving_data'
p10
I00
sS'cache'
p11
(lp12
I0
aI0
aI3
aI3
aI0
asS'accepted_dist'
p13
(lp14
sS'last_neigh'
p15
I3
sba(ipmfm
Medium
p16
(dp17
g5
I1
sg6
I3
sg7
(lp18
sg9
I2
sg10
I00
sg11
(lp19
I0
aI4
aI2
aI2
aI0
asg13
(lp20
sg15
I1
sba(ipmfm
Medium
p21
(dp22
g5
I4
sg6
I2
sg7
(lp23
sg9
I0
sg10
I00
sg11
(lp24
I0
aI3
aI1
aI2
aI0
asg13
(lp25
sg15
I3
sba(ipmfm
Medium
p26
(dp27
g5
I2
sg6
I2
sg7
(lp28
sg9
I1
sg10
I00
sg11
(lp29
I0
aI2
aI1
aI2
aI0
asg13
(lp30
sg15
I4
sba(ipmfm
Medium
p31
(dp32
g5
I4
sg6
I2
sg7
(lp33
sg9
I0
sg10
I00
sg11
(lp34
I0
aI2
aI1
aI2
aI0
asg13
(lp35
sg15
I2
sba(ipmfm
Medium
p36
(dp37
g5
I4
sg6
I2
sg7
(lp38
sg9
I0
sg10
I00
sg11
(lp39
I0
aI2
aI1
aI2
aI0
asg13
(lp40
sg15
I3
sba(ipmfm
Medium
p41
(dp42
g5
I2
sg6
I2
sg7
(lp43
sg9
I1
sg10
I00
sg11
(lp44
I0
aI2
aI1
aI2
aI0
asg13
(lp45
sg15
I3
sba(ipmfm
Medium
p46
(dp47
g5
I4
sg6
I2
sg7
(lp48
sg9
I0
sg10
I00
sg11
(lp49
I0
aI2
aI1
aI3
aI0
asg13
(lp50
sg15
I4
sba(ipmfm
Medium
p51
(dp52
g5
I2
sg6
I3
sg7
(lp53
sg9
I1
sg10
I00
sg11
(lp54
I0
aI2
aI2
aI4
aI0
asg13
(lp55
sg15
I4
sba(ipmfm
Medium
p56
(dp57
g5
I2
sg6
I4
sg7
(lp58
sg9
I1
sg10
I00
sg11
(lp59
I0
aI3
aI3
aI0
aI0
asg13
(lp60
sg15
I1
sbaa(lp61
(ipmfm
Medium
p62
(dp63
g5
I1
sg6
I3
sg7
(lp64
sg9
I4
sg10
I00
sg11
(lp65
I0
aI0
aI2
aI2
aI4
asg13
(lp66
sg15
I3
sba(ipmfm
Medium
p67
(dp68
g5
I3
sg6
I2
sg7
(lp69
sg9
I2
sg10
I00
sg11
(lp70
I0
aI3
aI1
aI1
aI3
asg13
(lp71
sg15
I4
sba(ipmfm
Medium
p72
(dp73
g5
I3
sg6
I1
sg7
(lp74
sg9
I2
sg10
I00
sg11
(lp75
I0
aI2
aI-1
aI1
aI2
asg13
(lp76
sg15
I1
sba(ipmfm
Medium
p77
(dp78
g5
I1
sg6
I1
sg7
(lp79
sg9
I0
sg10
I00
sg11
(lp80
I0
aI1
aI-1
aI1
aI2
asg13
(lp81
sg15
I4
sba(ipmfm
Medium
p82
(dp83
g5
I1
sg6
I1
sg7
(lp84
sg9
I0
sg10
I00
sg11
(lp85
I0
aI1
aI-1
aI1
aI2
asg13
(lp86
sg15
I2
sba(ipmfm
Medium
p87
(dp88
g5
I1
sg6
I1
sg7
(lp89
sg9
I3
sg10
I00
sg11
(lp90
I0
aI1
aI-1
aI1
aI2
asg13
(lp91
sg15
I3
sba(ipmfm
Medium
p92
(dp93
g5
I1
sg6
I1
sg7
(lp94
sg9
I0
sg10
I00
sg11
(lp95
I0
aI1
aI-1
aI1
aI2
asg13
(lp96
sg15
I2
sba(ipmfm
Medium
p97
(dp98
g5
I1
sg6
I1
sg7
(lp99
sg9
I3
sg10
I00
sg11
(lp100
I0
aI1
aI-1
aI2
aI2
asg13
(lp101
sg15
I4
sba(ipmfm
Medium
p102
(dp103
g5
I4
sg6
I2
sg7
(lp104
sg9
I0
sg10
I00
sg11
(lp105
I0
aI1
aI1
aI3
aI3
asg13
(lp106
sg15
I2
sba(ipmfm
Medium
p107
(dp108
g5
I2
sg6
I3
sg7
(lp109
sg9
I1
sg10
I00
sg11
(lp110
I0
aI2
aI2
aI0
aI4
asg13
(lp111
sg15
I1
sbaa(lp112
(ipmfm
Medium
p113
(dp114
g5
I3
sg6
I2
sg7
(lp115
sg9
I2
sg10
I00
sg11
(lp116
I0
aI0
aI2
aI1
aI3
asg13
(lp117
sg15
I1
sba(ipmfm
Medium
p118
(dp119
g5
I3
sg6
I1
sg7
(lp120
sg9
I2
sg10
I00
sg11
(lp121
I0
aI2
aI1
aI-1
aI2
asg13
(lp122
sg15
I2
sba(ipmfm
Barrier
p123
(dp124
S'accepted_data_ids'
p125
(lp126
sg15
I2
sg11
(lp127
I0
aS'Medium'
p128
aS'Barrier'
p129
ag129
ag128
asba(ipmfm
Barrier
p130
(dp131
g125
(lp132
sg15
I4
sg11
(lp133
I0
ag129
ag128
ag129
ag128
asba(ipmfm
Barrier
p134
(dp135
g125
(lp136
sg15
I4
sg11
(lp137
I0
ag129
ag128
ag129
ag128
asba(ipmfm
Barrier
p138
(dp139
g125
(lp140
sg15
I4
sg11
(lp141
I0
ag129
ag128
ag129
ag128
asba(ipmfm
Barrier
p142
(dp143
g125
(lp144
sg15
I4
sg11
(lp145
I0
ag129
ag128
ag129
ag128
asba(ipmfm
Barrier
p146
(dp147
g125
(lp148
sg15
I3
sg11
(lp149
I0
ag129
ag129
ag128
ag128
asba(ipmfm
Medium
p150
(dp151
g5
I4
sg6
I1
sg7
(lp152
sg9
I2
sg10
I00
sg11
(lp153
I0
aI-1
aI1
aI2
aI2
asg13
(lp154
sg15
I1
sba(ipmfm
Medium
p155
(dp156
g5
I2
sg6
I2
sg7
(lp157
sg9
I1
sg10
I00
sg11
(lp158
I0
aI1
aI2
aI0
aI3
asg13
(lp159
sg15
I2
sbaa(lp160
(ipmfm
Medium
p161
(dp162
g5
I1
sg6
I2
sg7
(lp163
sg9
I0
sg10
I00
sg11
(lp164
I0
aI0
aI2
aI1
aI2
asg13
(lp165
sg15
I2
sba(ipmfm
Medium
p166
(dp167
g5
I4
sg6
I1
sg7
(lp168
sg9
I0
sg10
I00
sg11
(lp169
I0
aI2
aI1
aI-1
aI1
asg13
(lp170
sg15
I4
sba(ipmfm
Barrier
p171
(dp172
g125
(lp173
sg15
I3
sg11
(lp174
I0
ag128
ag129
ag128
ag129
asba(ipmfm
Medium
p175
(dp176
g5
I4
sg6
I1
sg7
(lp177
sg9
I0
sg10
I00
sg11
(lp178
I0
aI-1
aI1
aI1
aI-1
asg13
(lp179
sg15
I3
sba(ipmfm
Medium
p180
(dp181
g5
I1
sg6
I1
sg7
(lp182
sg9
I0
sg10
I00
sg11
(lp183
I0
aI1
aI2
aI3
aI-1
asg13
(lp184
sg15
I1
sba(ipmfm
Medium
p185
(dp186
g5
I4
sg6
I2
sg7
(lp187
sg9
I3
sg10
I00
sg11
(lp188
I0
aI1
aI2
aI1
aI0
asg13
(lp189
sg15
I3
sba(ipmfm
Data
p190
(dp191
S'lock'
p192
I00
sg15
I4
sg11
(lp193
I0
aI0
aI0
aI0
aI0
asS'ID'
p194
I1
sba(ipmfm
Barrier
p195
(dp196
g125
(lp197
sg15
I2
sg11
(lp198
I0
ag128
ag129
ag128
ag129
asba(ipmfm
Medium
p199
(dp200
g5
I4
sg6
I1
sg7
(lp201
sg9
I2
sg10
I00
sg11
(lp202
I0
aI-1
aI1
aI2
aI1
asg13
(lp203
sg15
I1
sba(ipmfm
Medium
p204
(dp205
g5
I1
sg6
I2
sg7
(lp206
sg9
I4
sg10
I00
sg11
(lp207
I0
aI1
aI2
aI0
aI2
asg13
(lp208
sg15
I2
sbaa(lp209
(ipmfm
Medium
p210
(dp211
g5
I3
sg6
I2
sg7
(lp212
sg9
I2
sg10
I00
sg11
(lp213
I0
aI0
aI2
aI1
aI2
asg13
(lp214
sg15
I1
sba(ipmfm
Medium
p215
(dp216
g5
I3
sg6
I1
sg7
(lp217
sg9
I2
sg10
I00
sg11
(lp218
I0
aI2
aI1
aI-1
aI1
asg13
(lp219
sg15
I2
sba(ipmfm
Barrier
p220
(dp221
g125
(lp222
sg15
I2
sg11
(lp223
I0
ag128
ag129
ag128
ag129
asba(ipmfm
Medium
p224
(dp225
g5
I1
sg6
I1
sg7
(lp226
sg9
I4
sg10
I00
sg11
(lp227
I0
aI-1
aI1
aI2
aI1
asg13
(lp228
sg15
I3
sba(ipmfm
Medium
p229
(dp230
g5
I1
sg6
I2
sg7
(lp231
sg9
I4
sg10
I00
sg11
(lp232
I0
aI1
aI2
aI2
aI1
asg13
(lp233
sg15
I3
sba(ipmfm
Medium
p234
(dp235
g5
I4
sg6
I3
sg7
(lp236
sg9
I3
sg10
I00
sg11
(lp237
I0
aI2
aI2
aI2
aI0
asg13
(lp238
sg15
I3
sba(ipmfm
Medium
p239
(dp240
g5
I2
sg6
I1
sg7
(lp241
sg9
I0
sg10
I00
sg11
(lp242
I0
aI2
aI0
aI-1
aI-1
asg13
(lp243
sg15
I3
sba(ipmfm
Barrier
p244
(dp245
g125
(lp246
sg15
I2
sg11
(lp247
I0
aS'Data'
p248
ag129
ag128
ag129
asba(ipmfm
Medium
p249
(dp250
g5
I4
sg6
I2
sg7
(lp251
sg9
I0
sg10
I00
sg11
(lp252
I0
aI-1
aI3
aI0
aI0
asg13
(lp253
sg15
I4
sba(ipmfm
Medium
p254
(dp255
g5
I2
sg6
I2
sg7
(lp256
sg9
I1
sg10
I00
sg11
(lp257
I0
aI1
aI0
aI0
aI2
asg13
(lp258
sg15
I3
sbaa(lp259
(ipmfm
Medium
p260
(dp261
g5
I1
sg6
I2
sg7
(lp262
sg9
I0
sg10
I00
sg11
(lp263
I0
aI0
aI2
aI1
aI2
asg13
(lp264
sg15
I2
sba(ipmfm
Medium
p265
(dp266
g5
I4
sg6
I1
sg7
(lp267
sg9
I0
sg10
I00
sg11
(lp268
I0
aI2
aI1
aI-1
aI1
asg13
(lp269
sg15
I4
sba(ipmfm
Barrier
p270
(dp271
g125
(lp272
sg15
I4
sg11
(lp273
I0
ag128
ag129
ag128
ag129
asba(ipmfm
Medium
p274
(dp275
g5
I1
sg6
I1
sg7
(lp276
sg9
I2
sg10
I00
sg11
(lp277
I0
aI-1
aI1
aI2
aI1
asg13
(lp278
sg15
I2
sba(ipmfm
Medium
p279
(dp280
g5
I2
sg6
I2
sg7
(lp281
sg9
I4
sg10
I00
sg11
(lp282
I0
aI1
aI1
aI2
aI2
asg13
(lp283
sg15
I1
sba(ipmfm
Medium
p284
(dp285
g5
I3
sg6
I2
sg7
(lp286
sg9
I1
sg10
I00
sg11
(lp287
I0
aI2
aI1
aI1
aI2
asg13
(lp288
sg15
I3
sba(ipmfm
Medium
p289
(dp290
g5
I3
sg6
I1
sg7
(lp291
sg9
I1
sg10
I00
sg11
(lp292
I0
aI2
aI1
aI-1
aI1
asg13
(lp293
sg15
I4
sba(ipmfm
Barrier
p294
(dp295
g125
(lp296
sg15
I2
sg11
(lp297
I0
ag128
ag129
ag128
ag129
asba(ipmfm
Data
p298
(dp299
g192
I00
sg15
I2
sg11
(lp300
I0
aI0
aI0
aI0
aI0
asg194
I1
sba(ipmfm
Medium
p301
(dp302
g5
I2
sg6
I2
sg7
(lp303
sg9
I1
sg10
I00
sg11
(lp304
I0
aI1
aI0
aI0
aI2
asg13
(lp305
sg15
I4
sbaa(lp306
(ipmfm
Medium
p307
(dp308
g5
I3
sg6
I2
sg7
(lp309
sg9
I2
sg10
I00
sg11
(lp310
I0
aI0
aI2
aI1
aI2
asg13
(lp311
sg15
I1
sba(ipmfm
Medium
p312
(dp313
g5
I3
sg6
I1
sg7
(lp314
sg9
I2
sg10
I00
sg11
(lp315
I0
aI2
aI1
aI-1
aI1
asg13
(lp316
sg15
I2
sba(ipmfm
Barrier
p317
(dp318
g125
(lp319
sg15
I4
sg11
(lp320
I0
ag128
ag129
ag128
ag129
asba(ipmfm
Medium
p321
(dp322
g5
I1
sg6
I1
sg7
(lp323
sg9
I3
sg10
I00
sg11
(lp324
I0
aI-1
aI-1
aI1
aI1
asg13
(lp325
sg15
I2
sba(ipmfm
Medium
p326
(dp327
g5
I2
sg6
I1
sg7
(lp328
sg9
I4
sg10
I00
sg11
(lp329
I0
aI1
aI-1
aI1
aI2
asg13
(lp330
sg15
I2
sba(ipmfm
Medium
p331
(dp332
g5
I2
sg6
I1
sg7
(lp333
sg9
I3
sg10
I00
sg11
(lp334
I0
aI1
aI-1
aI1
aI2
asg13
(lp335
sg15
I1
sba(ipmfm
Medium
p336
(dp337
g5
I2
sg6
I1
sg7
(lp338
sg9
I0
sg10
I00
sg11
(lp339
I0
aI1
aI-1
aI-1
aI1
asg13
(lp340
sg15
I4
sba(ipmfm
Barrier
p341
(dp342
g125
(lp343
sg15
I4
sg11
(lp344
I0
ag128
ag129
ag128
ag129
asba(ipmfm
Medium
p345
(dp346
g5
I1
sg6
I1
sg7
(lp347
sg9
I4
sg10
I00
sg11
(lp348
I0
aI-1
aI1
aI2
aI1
asg13
(lp349
sg15
I1
sba(ipmfm
Medium
p350
(dp351
g5
I1
sg6
I2
sg7
(lp352
sg9
I4
sg10
I00
sg11
(lp353
I0
aI1
aI2
aI0
aI2
asg13
(lp354
sg15
I1
sbaa(lp355
(ipmfm
Medium
p356
(dp357
g5
I1
sg6
I2
sg7
(lp358
sg9
I0
sg10
I00
sg11
(lp359
I0
aI0
aI3
aI1
aI2
asg13
(lp360
sg15
I2
sba(ipmfm
Medium
p361
(dp362
g5
I4
sg6
I1
sg7
(lp363
sg9
I3
sg10
I00
sg11
(lp364
I0
aI2
aI2
aI-1
aI1
asg13
(lp365
sg15
I4
sba(ipmfm
Barrier
p366
(dp367
g125
(lp368
sg15
I3
sg11
(lp369
I0
ag128
ag128
ag129
ag129
asba(ipmfm
Barrier
p370
(dp371
g125
(lp372
sg15
I2
sg11
(lp373
I0
ag129
ag128
ag129
ag128
asba(ipmfm
Barrier
p374
(dp375
g125
(lp376
sg15
I3
sg11
(lp377
I0
ag129
ag128
ag129
ag128
asba(ipmfm
Barrier
p378
(dp379
g125
(lp380
sg15
I1
sg11
(lp381
I0
ag129
ag128
ag129
ag128
asba(ipmfm
Barrier
p382
(dp383
g125
(lp384
sg15
I1
sg11
(lp385
I0
ag129
ag128
ag129
ag128
asba(ipmfm
Barrier
p386
(dp387
g125
(lp388
sg15
I2
sg11
(lp389
I0
ag129
ag128
ag128
ag129
asba(ipmfm
Medium
p390
(dp391
g5
I2
sg6
I1
sg7
(lp392
sg9
I0
sg10
I00
sg11
(lp393
I0
aI-1
aI2
aI2
aI2
asg13
(lp394
sg15
I1
sba(ipmfm
Medium
p395
(dp396
g5
I1
sg6
I2
sg7
(lp397
sg9
I2
sg10
I00
sg11
(lp398
I0
aI1
aI3
aI0
aI2
asg13
(lp399
sg15
I4
sbaa(lp400
(ipmfm
Medium
p401
(dp402
g5
I1
sg6
I3
sg7
(lp403
sg9
I2
sg10
I00
sg11
(lp404
I0
aI0
aI4
aI2
aI2
asg13
(lp405
sg15
I3
sba(ipmfm
Medium
p406
(dp407
g5
I4
sg6
I2
sg7
(lp408
sg9
I3
sg10
I00
sg11
(lp409
I0
aI3
aI3
aI1
aI1
asg13
(lp410
sg15
I4
sba(ipmfm
Medium
p411
(dp412
g5
I3
sg6
I1
sg7
(lp413
sg9
I2
sg10
I00
sg11
(lp414
I0
aI2
aI2
aI1
aI-1
asg13
(lp415
sg15
I1
sba(ipmfm
Medium
p416
(dp417
g5
I3
sg6
I1
sg7
(lp418
sg9
I2
sg10
I00
sg11
(lp419
I0
aI1
aI2
aI1
aI-1
asg13
(lp420
sg15
I2
sba(ipmfm
Medium
p421
(dp422
g5
I1
sg6
I1
sg7
(lp423
sg9
I0
sg10
I00
sg11
(lp424
I0
aI1
aI2
aI1
aI-1
asg13
(lp425
sg15
I2
sba(ipmfm
Medium
p426
(dp427
g5
I4
sg6
I1
sg7
(lp428
sg9
I1
sg10
I00
sg11
(lp429
I0
aI1
aI2
aI1
aI-1
asg13
(lp430
sg15
I3
sba(ipmfm
Medium
p431
(dp432
g5
I4
sg6
I1
sg7
(lp433
sg9
I3
sg10
I00
sg11
(lp434
I0
aI1
aI2
aI1
aI-1
asg13
(lp435
sg15
I1
sba(ipmfm
Medium
p436
(dp437
g5
I1
sg6
I1
sg7
(lp438
sg9
I4
sg10
I00
sg11
(lp439
I0
aI1
aI2
aI2
aI-1
asg13
(lp440
sg15
I1
sba(ipmfm
Medium
p441
(dp442
g5
I1
sg6
I2
sg7
(lp443
sg9
I4
sg10
I00
sg11
(lp444
I0
aI1
aI3
aI3
aI1
asg13
(lp445
sg15
I1
sba(ipmfm
Medium
p446
(dp447
g5
I3
sg6
I3
sg7
(lp448
sg9
I4
sg10
I00
sg11
(lp449
I0
aI2
aI4
aI0
aI2
asg13
(lp450
sg15
I2
sbaa(lp451
(ipmfm
Medium
p452
(dp453
g5
I1
sg6
I4
sg7
(lp454
sg9
I0
sg10
I00
sg11
(lp455
I0
aI0
aI0
aI3
aI3
asg13
(lp456
sg15
I3
sba(ipmfm
Medium
p457
(dp458
g5
I1
sg6
I3
sg7
(lp459
sg9
I3
sg10
I00
sg11
(lp460
I0
aI4
aI0
aI2
aI2
asg13
(lp461
sg15
I2
sba(ipmfm
Medium
p462
(dp463
g5
I1
sg6
I2
sg7
(lp464
sg9
I3
sg10
I00
sg11
(lp465
I0
aI3
aI0
aI2
aI1
asg13
(lp466
sg15
I2
sba(ipmfm
Medium
p467
(dp468
g5
I1
sg6
I2
sg7
(lp469
sg9
I0
sg10
I00
sg11
(lp470
I0
aI2
aI0
aI2
aI1
asg13
(lp471
sg15
I2
sba(ipmfm
Medium
p472
(dp473
g5
I1
sg6
I2
sg7
(lp474
sg9
I3
sg10
I00
sg11
(lp475
I0
aI2
aI0
aI2
aI1
asg13
(lp476
sg15
I2
sba(ipmfm
Medium
p477
(dp478
g5
I1
sg6
I2
sg7
(lp479
sg9
I3
sg10
I00
sg11
(lp480
I0
aI2
aI0
aI2
aI1
asg13
(lp481
sg15
I2
sba(ipmfm
Medium
p482
(dp483
g5
I4
sg6
I2
sg7
(lp484
sg9
I3
sg10
I00
sg11
(lp485
I0
aI2
aI0
aI2
aI1
asg13
(lp486
sg15
I1
sba(ipmfm
Medium
p487
(dp488
g5
I1
sg6
I2
sg7
(lp489
sg9
I4
sg10
I00
sg11
(lp490
I0
aI2
aI0
aI3
aI1
asg13
(lp491
sg15
I1
sba(ipmfm
Medium
p492
(dp493
g5
I1
sg6
I3
sg7
(lp494
sg9
I4
sg10
I00
sg11
(lp495
I0
aI2
aI0
aI4
aI2
asg13
(lp496
sg15
I1
sba(ipmfm
Medium
p497
(dp498
g5
I1
sg6
I4
sg7
(lp499
sg9
I4
sg10
I00
sg11
(lp500
I0
aI3
aI0
aI0
aI3
asg13
(lp501
sg15
I4
sbaaa.