(lp0
I10
aI10
a(lp1
(lp2
(ipmfm
Medium
p3
(dp4
S'last_neigh'
p5
I0
sS'cache'
p6
(lp7
I0
aI2
aI2
aI0
asS'dist'
p8
I3
sS'absorbed_data_ids'
p9
(lp10
sS'accepted_dist'
p11
(lp12
sba(ipmfm
Medium
p13
(dp14
g5
I0
sg6
(lp15
I0
aI1
aI2
aI3
asg8
I2
sg9
(lp16
sg11
(lp17
sba(ipmfm
Medium
p18
(dp19
g5
I0
sg6
(lp20
I0
aI1
aI2
aI2
asg8
I2
sg9
(lp21
sg11
(lp22
sba(ipmfm
Medium
p23
(dp24
g5
I0
sg6
(lp25
I0
aI1
aI2
aI2
asg8
I2
sg9
(lp26
sg11
(lp27
sba(ipmfm
Medium
p28
(dp29
g5
I0
sg6
(lp30
I0
aI1
aI2
aI2
asg8
I2
sg9
(lp31
sg11
(lp32
sba(ipmfm
Medium
p33
(dp34
g5
I0
sg6
(lp35
I0
aI1
aI2
aI2
asg8
I2
sg9
(lp36
sg11
(lp37
sba(ipmfm
Medium
p38
(dp39
g5
I0
sg6
(lp40
I0
aI1
aI2
aI2
asg8
I2
sg9
(lp41
sg11
(lp42
sba(ipmfm
Medium
p43
(dp44
g5
I0
sg6
(lp45
I0
aI1
aI3
aI2
asg8
I2
sg9
(lp46
sg11
(lp47
sba(ipmfm
Medium
p48
(dp49
g5
I0
sg6
(lp50
I0
aI2
aI4
aI2
asg8
I3
sg9
(lp51
sg11
(lp52
sba(ipmfm
Medium
p53
(dp54
g5
I0
sg6
(lp55
I0
aI3
aI0
aI3
asg8
I4
sg9
(lp56
sg11
(lp57
sbaa(lp58
(ipmfm
Medium
p59
(dp60
g5
I0
sg6
(lp61
I3
aI1
aI1
aI0
asg8
I2
sg9
(lp62
sg11
(lp63
sba(ipmfm
Medium
p64
(dp65
g5
I0
sg6
(lp66
I2
aI-1
aI1
aI2
asg8
I1
sg9
(lp67
sg11
(lp68
sba(ipmfm
Medium
p69
(dp70
g5
I0
sg6
(lp71
I2
aI-1
aI1
aI1
asg8
I1
sg9
(lp72
sg11
(lp73
sba(ipmfm
Medium
p74
(dp75
g5
I0
sg6
(lp76
I2
aI-1
aI1
aI1
asg8
I1
sg9
(lp77
sg11
(lp78
sba(ipmfm
Medium
p79
(dp80
g5
I0
sg6
(lp81
I2
aI-1
aI1
aI1
asg8
I1
sg9
(lp82
sg11
(lp83
sba(ipmfm
Medium
p84
(dp85
g5
I0
sg6
(lp86
I2
aI-1
aI1
aI1
asg8
I1
sg9
(lp87
sg11
(lp88
sba(ipmfm
Medium
p89
(dp90
g5
I0
sg6
(lp91
I2
aI-1
aI1
aI1
asg8
I1
sg9
(lp92
sg11
(lp93
sba(ipmfm
Medium
p94
(dp95
g5
I0
sg6
(lp96
I2
aI-1
aI2
aI1
asg8
I1
sg9
(lp97
sg11
(lp98
sba(ipmfm
Medium
p99
(dp100
g5
I0
sg6
(lp101
I3
aI1
aI3
aI1
asg8
I2
sg9
(lp102
sg11
(lp103
sba(ipmfm
Medium
p104
(dp105
g5
I0
sg6
(lp106
I4
aI2
aI0
aI2
asg8
I3
sg9
(lp107
sg11
(lp108
sbaa(lp109
(ipmfm
Medium
p110
(dp111
g5
I1
sg6
(lp112
I2
aI1
aI-1
aI0
asg8
I1
sg9
(lp113
sg11
(lp114
sba(ipmfm
Barrier
p115
(dp116
S'accepted_data_ids'
p117
(lp118
sg5
I3
sg6
(lp119
S'Medium'
p120
aS'Barrier'
p121
ag121
ag120
asba(ipmfm
Barrier
p122
(dp123
g117
(lp124
sg5
I2
sg6
(lp125
g120
ag120
ag121
ag121
asba(ipmfm
Barrier
p126
(dp127
g117
(lp128
sg5
I3
sg6
(lp129
g120
ag120
ag121
ag121
asba(ipmfm
Barrier
p130
(dp131
g117
(lp132
sg5
I3
sg6
(lp133
g120
ag120
ag121
ag121
asba(ipmfm
Barrier
p134
(dp135
g117
(lp136
sg5
I2
sg6
(lp137
g120
ag120
ag121
ag121
asba(ipmfm
Barrier
p138
(dp139
g117
(lp140
sg5
I2
sg6
(lp141
g120
ag120
ag121
ag121
asba(ipmfm
Barrier
p142
(dp143
g117
(lp144
sg5
I1
sg6
(lp145
g120
ag121
ag120
ag121
asba(ipmfm
Medium
p146
(dp147
g5
I0
sg6
(lp148
I2
aI1
aI2
aI-1
asg8
I1
sg9
(lp149
sg11
(lp150
sba(ipmfm
Medium
p151
(dp152
g5
I0
sg6
(lp153
I3
aI2
aI0
aI1
asg8
I2
sg9
(lp154
sg11
(lp155
sbaa(lp156
(ipmfm
Medium
p157
(dp158
g5
I2
sg6
(lp159
I1
aI1
aI-1
aI0
asg8
I1
sg9
(lp160
sg11
(lp161
sba(ipmfm
Barrier
p162
(dp163
g117
(lp164
sg5
I3
sg6
(lp165
g121
ag121
ag120
ag120
asba(ipmfm
Medium
p166
(dp167
g5
I2
sg6
(lp168
I-1
aI1
aI1
aI-1
asg8
I1
sg9
(lp169
sg11
(lp170
sba(ipmfm
Medium
p171
(dp172
g5
I2
sg6
(lp173
I-1
aI2
aI1
aI1
asg8
I1
sg9
(lp174
sg11
(lp175
sba(ipmfm
Medium
p176
(dp177
g5
I2
sg6
(lp178
I-1
aI2
aI1
aI1
asg8
I1
sg9
(lp179
sg11
(lp180
sba(ipmfm
Medium
p181
(dp182
g5
I2
sg6
(lp183
I-1
aI2
aI1
aI1
asg8
I1
sg9
(lp184
sg11
(lp185
sba(ipmfm
Medium
p186
(dp187
g5
I3
sg6
(lp188
I-1
aI1
aI-1
aI1
asg8
I1
sg9
(lp189
sg11
(lp190
sba(ipmfm
Barrier
p191
(dp192
g117
(lp193
sg5
I2
sg6
(lp194
g121
ag121
ag120
ag120
asba(ipmfm
Medium
p195
(dp196
g5
I0
sg6
(lp197
I1
aI1
aI2
aI-1
asg8
I1
sg9
(lp198
sg11
(lp199
sba(ipmfm
Medium
p200
(dp201
g5
I0
sg6
(lp202
I2
aI2
aI0
aI1
asg8
I2
sg9
(lp203
sg11
(lp204
sbaa(lp205
(ipmfm
Medium
p206
(dp207
g5
I2
sg6
(lp208
I1
aI1
aI-1
aI0
asg8
I1
sg9
(lp209
sg11
(lp210
sba(ipmfm
Barrier
p211
(dp212
g117
(lp213
sg5
I2
sg6
(lp214
g121
ag121
ag120
ag120
asba(ipmfm
Medium
p215
(dp216
g5
I3
sg6
(lp217
I1
aI1
aI2
aI-1
asg8
I1
sg9
(lp218
sg11
(lp219
sba(ipmfm
Medium
p220
(dp221
g5
I3
sg6
(lp222
I1
aI2
aI2
aI1
asg8
I2
sg9
(lp223
sg11
(lp224
sba(ipmfm
Medium
p225
(dp226
g5
I3
sg6
(lp227
I1
aI2
aI2
aI2
asg8
I2
sg9
(lp228
sg11
(lp229
sba(ipmfm
Medium
p230
(dp231
g5
I3
sg6
(lp232
I1
aI2
aI1
aI2
asg8
I2
sg9
(lp233
sg11
(lp234
sba(ipmfm
Medium
p235
(dp236
g5
I0
sg6
(lp237
I1
aI1
aI-1
aI2
asg8
I1
sg9
(lp238
sg11
(lp239
sba(ipmfm
Barrier
p240
(dp241
g117
(lp242
sg5
I3
sg6
(lp243
g121
ag121
ag120
ag120
asba(ipmfm
Medium
p244
(dp245
g5
I0
sg6
(lp246
I1
aI1
aI2
aI-1
asg8
I1
sg9
(lp247
sg11
(lp248
sba(ipmfm
Medium
p249
(dp250
g5
I0
sg6
(lp251
I2
aI2
aI0
aI1
asg8
I2
sg9
(lp252
sg11
(lp253
sbaa(lp254
(ipmfm
Medium
p255
(dp256
g5
I2
sg6
(lp257
I1
aI1
aI-1
aI0
asg8
I1
sg9
(lp258
sg11
(lp259
sba(ipmfm
Barrier
p260
(dp261
g117
(lp262
sg5
I3
sg6
(lp263
g121
ag121
ag120
ag120
asba(ipmfm
Medium
p264
(dp265
g5
I0
sg6
(lp266
I1
aI1
aI2
aI-1
asg8
I1
sg9
(lp267
sg11
(lp268
sba(ipmfm
Medium
p269
(dp270
g5
I0
sg6
(lp271
I2
aI1
aI2
aI1
asg8
I2
sg9
(lp272
sg11
(lp273
sba(ipmfm
Medium
p274
(dp275
g5
I0
sg6
(lp276
I2
aI1
aI2
aI2
asg8
I2
sg9
(lp277
sg11
(lp278
sba(ipmfm
Medium
p279
(dp280
g5
I0
sg6
(lp281
I2
aI1
aI1
aI2
asg8
I2
sg9
(lp282
sg11
(lp283
sba(ipmfm
Medium
p284
(dp285
g5
I1
sg6
(lp286
I1
aI1
aI-1
aI2
asg8
I1
sg9
(lp287
sg11
(lp288
sba(ipmfm
Barrier
p289
(dp290
g117
(lp291
sg5
I0
sg6
(lp292
g121
ag121
ag120
ag120
asba(ipmfm
Medium
p293
(dp294
g5
I0
sg6
(lp295
I1
aI1
aI2
aI-1
asg8
I1
sg9
(lp296
sg11
(lp297
sba(ipmfm
Medium
p298
(dp299
g5
I0
sg6
(lp300
I2
aI2
aI0
aI1
asg8
I2
sg9
(lp301
sg11
(lp302
sbaa(lp303
(ipmfm
Medium
p304
(dp305
g5
I2
sg6
(lp306
I1
aI1
aI-1
aI0
asg8
I1
sg9
(lp307
sg11
(lp308
sba(ipmfm
Barrier
p309
(dp310
g117
(lp311
sg5
I3
sg6
(lp312
g121
ag121
ag120
ag120
asba(ipmfm
Medium
p313
(dp314
g5
I1
sg6
(lp315
I1
aI-1
aI1
aI-1
asg8
I1
sg9
(lp316
sg11
(lp317
sba(ipmfm
Medium
p318
(dp319
g5
I1
sg6
(lp320
I2
aI-1
aI1
aI1
asg8
I1
sg9
(lp321
sg11
(lp322
sba(ipmfm
Medium
p323
(dp324
g5
I1
sg6
(lp325
I2
aI-1
aI1
aI1
asg8
I1
sg9
(lp326
sg11
(lp327
sba(ipmfm
Medium
p328
(dp329
g5
I1
sg6
(lp330
I2
aI-1
aI1
aI1
asg8
I1
sg9
(lp331
sg11
(lp332
sba(ipmfm
Medium
p333
(dp334
g5
I2
sg6
(lp335
I1
aI-1
aI-1
aI1
asg8
I1
sg9
(lp336
sg11
(lp337
sba(ipmfm
Barrier
p338
(dp339
g117
(lp340
sg5
I2
sg6
(lp341
g121
ag121
ag120
ag120
asba(ipmfm
Medium
p342
(dp343
g5
I0
sg6
(lp344
I1
aI1
aI2
aI-1
asg8
I1
sg9
(lp345
sg11
(lp346
sba(ipmfm
Medium
p347
(dp348
g5
I0
sg6
(lp349
I2
aI2
aI0
aI1
asg8
I2
sg9
(lp350
sg11
(lp351
sbaa(lp352
(ipmfm
Medium
p353
(dp354
g5
I2
sg6
(lp355
I1
aI2
aI-1
aI0
asg8
I1
sg9
(lp356
sg11
(lp357
sba(ipmfm
Barrier
p358
(dp359
g117
(lp360
sg5
I3
sg6
(lp361
g121
ag120
ag121
ag120
asba(ipmfm
Barrier
p362
(dp363
g117
(lp364
sg5
I0
sg6
(lp365
g120
ag120
ag121
ag121
asba(ipmfm
Barrier
p366
(dp367
g117
(lp368
sg5
I1
sg6
(lp369
g120
ag120
ag121
ag121
asba(ipmfm
Barrier
p370
(dp371
g117
(lp372
sg5
I3
sg6
(lp373
g120
ag120
ag121
ag121
asba(ipmfm
Barrier
p374
(dp375
g117
(lp376
sg5
I0
sg6
(lp377
g120
ag120
ag121
ag121
asba(ipmfm
Barrier
p378
(dp379
g117
(lp380
sg5
I2
sg6
(lp381
g120
ag120
ag121
ag121
asba(ipmfm
Barrier
p382
(dp383
g117
(lp384
sg5
I3
sg6
(lp385
g121
ag120
ag120
ag121
asba(ipmfm
Medium
p386
(dp387
g5
I1
sg6
(lp388
I1
aI2
aI2
aI-1
asg8
I1
sg9
(lp389
sg11
(lp390
sba(ipmfm
Medium
p391
(dp392
g5
I1
sg6
(lp393
I2
aI3
aI0
aI1
asg8
I2
sg9
(lp394
sg11
(lp395
sbaa(lp396
(ipmfm
Medium
p397
(dp398
g5
I2
sg6
(lp399
I1
aI3
aI1
aI0
asg8
I2
sg9
(lp400
sg11
(lp401
sba(ipmfm
Medium
p402
(dp403
g5
I2
sg6
(lp404
I-1
aI2
aI1
aI2
asg8
I1
sg9
(lp405
sg11
(lp406
sba(ipmfm
Medium
p407
(dp408
g5
I2
sg6
(lp409
I-1
aI2
aI1
aI1
asg8
I1
sg9
(lp410
sg11
(lp411
sba(ipmfm
Medium
p412
(dp413
g5
I2
sg6
(lp414
I-1
aI2
aI1
aI1
asg8
I1
sg9
(lp415
sg11
(lp416
sba(ipmfm
Medium
p417
(dp418
g5
I2
sg6
(lp419
I-1
aI2
aI1
aI1
asg8
I1
sg9
(lp420
sg11
(lp421
sba(ipmfm
Medium
p422
(dp423
g5
I2
sg6
(lp424
I-1
aI2
aI1
aI1
asg8
I1
sg9
(lp425
sg11
(lp426
sba(ipmfm
Medium
p427
(dp428
g5
I2
sg6
(lp429
I-1
aI2
aI1
aI1
asg8
I1
sg9
(lp430
sg11
(lp431
sba(ipmfm
Medium
p432
(dp433
g5
I2
sg6
(lp434
I-1
aI2
aI2
aI1
asg8
I1
sg9
(lp435
sg11
(lp436
sba(ipmfm
Medium
p437
(dp438
g5
I2
sg6
(lp439
I1
aI3
aI3
aI1
asg8
I2
sg9
(lp440
sg11
(lp441
sba(ipmfm
Medium
p442
(dp443
g5
I2
sg6
(lp444
I2
aI4
aI0
aI2
asg8
I3
sg9
(lp445
sg11
(lp446
sbaa(lp447
(ipmfm
Medium
p448
(dp449
g5
I3
sg6
(lp450
I2
aI0
aI2
aI0
asg8
I3
sg9
(lp451
sg11
(lp452
sba(ipmfm
Medium
p453
(dp454
g5
I3
sg6
(lp455
I1
aI0
aI2
aI3
asg8
I2
sg9
(lp456
sg11
(lp457
sba(ipmfm
Medium
p458
(dp459
g5
I3
sg6
(lp460
I1
aI0
aI2
aI2
asg8
I2
sg9
(lp461
sg11
(lp462
sba(ipmfm
Medium
p463
(dp464
g5
I3
sg6
(lp465
I1
aI0
aI2
aI2
asg8
I2
sg9
(lp466
sg11
(lp467
sba(ipmfm
Medium
p468
(dp469
g5
I3
sg6
(lp470
I1
aI0
aI2
aI2
asg8
I2
sg9
(lp471
sg11
(lp472
sba(ipmfm
Medium
p473
(dp474
g5
I3
sg6
(lp475
I1
aI0
aI2
aI2
asg8
I2
sg9
(lp476
sg11
(lp477
sba(ipmfm
Medium
p478
(dp479
g5
I3
sg6
(lp480
I1
aI0
aI2
aI2
asg8
I2
sg9
(lp481
sg11
(lp482
sba(ipmfm
Medium
p483
(dp484
g5
I3
sg6
(lp485
I1
aI0
aI3
aI2
asg8
I2
sg9
(lp486
sg11
(lp487
sba(ipmfm
Medium
p488
(dp489
g5
I3
sg6
(lp490
I2
aI0
aI4
aI2
asg8
I3
sg9
(lp491
sg11
(lp492
sba(ipmfm
Medium
p493
(dp494
g5
I3
sg6
(lp495
I3
aI0
aI0
aI3
asg8
I4
sg9
(lp496
sg11
(lp497
sbaaa.